target datalayout = "e-m:e-p270:32:32-p271:32:32-p272:64:64-i64:64-i128:128-f80:128-n8:16:32:64-S128"
target triple = "x86_64-pc-linux-gnu"

@phpdbg_booted = internal global i8 0, align 1

; Function Attrs: inlinehint nounwind uwtable
define internal i32 @php_sapi_phpdbg_module_startup(ptr noundef %0) #8 {
  %2 = alloca i32, align 4
  %3 = alloca ptr, align 8
  store ptr %0, ptr %3, align 8, !tbaa !178
  %4 = load ptr, ptr %3, align 8, !tbaa !178
  %5 = call i32 @php_module_startup(ptr noundef %4, ptr noundef @sapi_phpdbg_module_entry)
  %6 = icmp eq i32 %5, -1
  br i1 %6, label %7, label %8

7:                                                ; preds = %1
  store i32 -1, ptr %2, align 4
  br label %9

8:                                                ; preds = %1
  store i8 1, ptr @phpdbg_booted, align 1, !tbaa !45
  store i32 0, ptr %2, align 4
  br label %9

9:                                                ; preds = %8, %7
  %10 = load i32, ptr %2, align 4
  ret i32 %10
}