; Function Attrs: inlinehint nounwind uwtable
define internal range(i32 -1, 1) i32 @php_sapi_phpdbg_module_startup(ptr noundef %0) #19 {
  %2 = tail call i32 @php_module_startup(ptr noundef %0, ptr noundef nonnull @sapi_phpdbg_module_entry) #27
  %3 = icmp eq i32 %2, -1
  br i1 %3, label %5, label %4

4:                                                ; preds = %1
  store i1 true, ptr @phpdbg_booted, align 1
  br label %5

5:                                                ; preds = %1, %4
  %.0 = phi i32 [ 0, %4 ], [ -1, %1 ]
  ret i32 %.0
}